; Function Attrs: uwtable
define internal void @_ZThn72_N12_GLOBAL__N_113tactic2solver18register_on_clauseEPvRSt8functionIFvS1_P4exprjPKjjPKS4_EE(ptr noundef readonly captures(none) %0, ptr noundef %1, ptr noundef nonnull align 1 %2) unnamed_addr #14 align 2 {
  %4 = getelementptr inbounds nuw i8, ptr %0, i64 104
  %5 = load ptr, ptr %4, align 8, !tbaa !52
  %6 = load ptr, ptr %5, align 8, !tbaa !3
  %7 = getelementptr inbounds nuw i8, ptr %6, i64 88
  %8 = load ptr, ptr %7, align 8
  tail call void %8(ptr noundef nonnull align 8 dereferenceable(12) %5, ptr noundef %1, ptr noundef nonnull align 1 %2)
  ret void
}